; Function Attrs: mustprogress nofree norecurse nosync nounwind willreturn memory(read, inaccessiblemem: none) uwtable
define internal noundef zeroext i1 @"_ZNSt17_Function_handlerIFbRKN4llvm13LegalityQueryEEZNS0_20AArch64LegalizerInfoC1ERKNS0_16AArch64SubtargetEE4$_20E9_M_invokeERKSt9_Any_dataS3_"(ptr nocapture noundef nonnull readonly align 8 dereferenceable(16) %0, ptr nocapture noundef nonnull readonly align 8 dereferenceable(40) %1) #11 align 2 {
  %.val = load i64, ptr %0, align 8
  %3 = getelementptr inbounds i8, ptr %1, i64 8
  %.val2 = load ptr, ptr %3, align 8
  %4 = getelementptr i8, ptr %.val2, i64 8
  %.val2.val = load i64, ptr %4, align 8
  %spec.select.i.i.i.i = icmp eq i64 %.val2.val, %.val
  ret i1 %spec.select.i.i.i.i
}